target datalayout = "e-m:e-p270:32:32-p271:32:32-p272:64:64-i64:64-i128:128-f80:128-n8:16:32:64-S128"
target triple = "x86_64-pc-linux-gnu"

%struct.t_symtab = type { i32, ptr }
%struct.t_symbuf = type { i32, ptr, ptr }

@.str.1 = private unnamed_addr constant [125 x i8] c"generated/home/dtcxzyw/WorkSpace/Projects/compilers/llvm-opt-benchmark/bench/gromacs/gromacs/src/gromacs/topology/symtab.cpp\00", align 1
@.str.18 = private unnamed_addr constant [11 x i8] c"copySymtab\00", align 1
@.str.19 = private unnamed_addr constant [19 x i8] c"copySymtab->symbuf\00", align 1
@.str.20 = private unnamed_addr constant [16 x i8] c"copySymbuf->buf\00", align 1
@.str.21 = private unnamed_addr constant [17 x i8] c"copySymbuf->next\00", align 1

; Function Attrs: inlinehint mustprogress uwtable
define internal void @_ZL13gmx_snew_implIPcEvPKcS2_iRPT_m(ptr noundef %0, ptr noundef %1, i32 noundef %2, ptr noundef nonnull align 8 dereferenceable(8) %3, i64 noundef %4) #13 {
  %6 = alloca ptr, align 8
  %7 = alloca ptr, align 8
  %8 = alloca i32, align 4
  %9 = alloca ptr, align 8
  %10 = alloca i64, align 8
  store ptr %0, ptr %6, align 8, !tbaa !104
  store ptr %1, ptr %7, align 8, !tbaa !104
  store i32 %2, ptr %8, align 4, !tbaa !11
  store ptr %3, ptr %9, align 8, !tbaa !334
  store i64 %4, ptr %10, align 8, !tbaa !57
  %11 = load ptr, ptr %6, align 8, !tbaa !104
  %12 = load ptr, ptr %7, align 8, !tbaa !104
  %13 = load i32, ptr %8, align 4, !tbaa !11
  %14 = load i64, ptr %10, align 8, !tbaa !57
  %15 = call noundef ptr @_Z11save_callocPKcS0_imm(ptr noundef %11, ptr noundef %12, i32 noundef %13, i64 noundef %14, i64 noundef 8)
  %16 = load ptr, ptr %9, align 8, !tbaa !334
  store ptr %15, ptr %16, align 8, !tbaa !145
  ret void
}

; Function Attrs: inlinehint mustprogress uwtable
define internal void @_ZL13gmx_snew_implI8t_symbufEvPKcS2_iRPT_m(ptr noundef %0, ptr noundef %1, i32 noundef %2, ptr noundef nonnull align 8 dereferenceable(8) %3, i64 noundef %4) #13 {
  %6 = alloca ptr, align 8
  %7 = alloca ptr, align 8
  %8 = alloca i32, align 4
  %9 = alloca ptr, align 8
  %10 = alloca i64, align 8
  store ptr %0, ptr %6, align 8, !tbaa !104
  store ptr %1, ptr %7, align 8, !tbaa !104
  store i32 %2, ptr %8, align 4, !tbaa !11
  store ptr %3, ptr %9, align 8, !tbaa !332
  store i64 %4, ptr %10, align 8, !tbaa !57
  %11 = load ptr, ptr %6, align 8, !tbaa !104
  %12 = load ptr, ptr %7, align 8, !tbaa !104
  %13 = load i32, ptr %8, align 4, !tbaa !11
  %14 = load i64, ptr %10, align 8, !tbaa !57
  %15 = call noundef ptr @_Z11save_callocPKcS0_imm(ptr noundef %11, ptr noundef %12, i32 noundef %13, i64 noundef %14, i64 noundef 24)
  %16 = load ptr, ptr %9, align 8, !tbaa !332
  store ptr %15, ptr %16, align 8, !tbaa !287
  ret void
}

; Function Attrs: mustprogress nounwind uwtable
define void @_Z11open_symtabP8t_symtab(ptr noundef %0) #2 {
  %2 = alloca ptr, align 8
  store ptr %0, ptr %2, align 8, !tbaa !282
  %3 = load ptr, ptr %2, align 8, !tbaa !282
  %4 = getelementptr inbounds nuw %struct.t_symtab, ptr %3, i32 0, i32 0
  store i32 0, ptr %4, align 8, !tbaa !326
  %5 = load ptr, ptr %2, align 8, !tbaa !282
  %6 = getelementptr inbounds nuw %struct.t_symtab, ptr %5, i32 0, i32 1
  store ptr null, ptr %6, align 8, !tbaa !284
  ret void
}

; Function Attrs: inlinehint mustprogress uwtable
define internal void @_ZL13gmx_snew_implI8t_symtabEvPKcS2_iRPT_m(ptr noundef %0, ptr noundef %1, i32 noundef %2, ptr noundef nonnull align 8 dereferenceable(8) %3, i64 noundef %4) #13 {
  %6 = alloca ptr, align 8
  %7 = alloca ptr, align 8
  %8 = alloca i32, align 4
  %9 = alloca ptr, align 8
  %10 = alloca i64, align 8
  store ptr %0, ptr %6, align 8, !tbaa !104
  store ptr %1, ptr %7, align 8, !tbaa !104
  store i32 %2, ptr %8, align 4, !tbaa !11
  store ptr %3, ptr %9, align 8, !tbaa !339
  store i64 %4, ptr %10, align 8, !tbaa !57
  %11 = load ptr, ptr %6, align 8, !tbaa !104
  %12 = load ptr, ptr %7, align 8, !tbaa !104
  %13 = load i32, ptr %8, align 4, !tbaa !11
  %14 = load i64, ptr %10, align 8, !tbaa !57
  %15 = call noundef ptr @_Z11save_callocPKcS0_imm(ptr noundef %11, ptr noundef %12, i32 noundef %13, i64 noundef %14, i64 noundef 16)
  %16 = load ptr, ptr %9, align 8, !tbaa !339
  store ptr %15, ptr %16, align 8, !tbaa !282
  ret void
}

; Function Attrs: mustprogress uwtable
define noundef ptr @_Z15duplicateSymtabPK8t_symtab(ptr noundef %0) #0 {
  %2 = alloca ptr, align 8
  %3 = alloca ptr, align 8
  %4 = alloca ptr, align 8
  %5 = alloca ptr, align 8
  %6 = alloca i32, align 4
  store ptr %0, ptr %2, align 8, !tbaa !282
  call void @llvm.lifetime.start.p0(i64 8, ptr %3) #18
  store ptr null, ptr %3, align 8, !tbaa !282
  call void @_ZL13gmx_snew_implI8t_symtabEvPKcS2_iRPT_m(ptr noundef @.str.18, ptr noundef @.str.1, i32 noundef 339, ptr noundef nonnull align 8 dereferenceable(8) %3, i64 noundef 1)
  %7 = load ptr, ptr %3, align 8, !tbaa !282
  call void @_Z11open_symtabP8t_symtab(ptr noundef %7)
  call void @llvm.lifetime.start.p0(i64 8, ptr %4) #18
  %8 = load ptr, ptr %2, align 8, !tbaa !282
  %9 = getelementptr inbounds nuw %struct.t_symtab, ptr %8, i32 0, i32 1
  %10 = load ptr, ptr %9, align 8, !tbaa !284
  store ptr %10, ptr %4, align 8, !tbaa !287
  %11 = load ptr, ptr %4, align 8, !tbaa !287
  %12 = icmp ne ptr %11, null
  br i1 %12, label %13, label %16

13:                                               ; preds = %1
  %14 = load ptr, ptr %3, align 8, !tbaa !282
  %15 = getelementptr inbounds nuw %struct.t_symtab, ptr %14, i32 0, i32 1
  call void @_ZL13gmx_snew_implI8t_symbufEvPKcS2_iRPT_m(ptr noundef @.str.19, ptr noundef @.str.1, i32 noundef 344, ptr noundef nonnull align 8 dereferenceable(8) %15, i64 noundef 1)
  br label %16

16:                                               ; preds = %13, %1
  call void @llvm.lifetime.start.p0(i64 8, ptr %5) #18
  %17 = load ptr, ptr %3, align 8, !tbaa !282
  %18 = getelementptr inbounds nuw %struct.t_symtab, ptr %17, i32 0, i32 1
  %19 = load ptr, ptr %18, align 8, !tbaa !284
  store ptr %19, ptr %5, align 8, !tbaa !287
  br label %20

20:                                               ; preds = %90, %16
  %21 = load ptr, ptr %4, align 8, !tbaa !287
  %22 = icmp ne ptr %21, null
  br i1 %22, label %23, label %91

23:                                               ; preds = %20
  %24 = load ptr, ptr %5, align 8, !tbaa !287
  %25 = getelementptr inbounds nuw %struct.t_symbuf, ptr %24, i32 0, i32 1
  %26 = load ptr, ptr %4, align 8, !tbaa !287
  %27 = getelementptr inbounds nuw %struct.t_symbuf, ptr %26, i32 0, i32 0
  %28 = load i32, ptr %27, align 8, !tbaa !290
  %29 = sext i32 %28 to i64
  call void @_ZL13gmx_snew_implIPcEvPKcS2_iRPT_m(ptr noundef @.str.20, ptr noundef @.str.1, i32 noundef 349, ptr noundef nonnull align 8 dereferenceable(8) %25, i64 noundef %29)
  %30 = load ptr, ptr %4, align 8, !tbaa !287
  %31 = getelementptr inbounds nuw %struct.t_symbuf, ptr %30, i32 0, i32 0
  %32 = load i32, ptr %31, align 8, !tbaa !290
  %33 = load ptr, ptr %5, align 8, !tbaa !287
  %34 = getelementptr inbounds nuw %struct.t_symbuf, ptr %33, i32 0, i32 0
  store i32 %32, ptr %34, align 8, !tbaa !290
  call void @llvm.lifetime.start.p0(i64 4, ptr %6) #18
  store i32 0, ptr %6, align 4, !tbaa !11
  br label %35

35:                                               ; preds = %75, %23
  %36 = load i32, ptr %6, align 4, !tbaa !11
  %37 = load ptr, ptr %4, align 8, !tbaa !287
  %38 = getelementptr inbounds nuw %struct.t_symbuf, ptr %37, i32 0, i32 0
  %39 = load i32, ptr %38, align 8, !tbaa !290
  %40 = icmp slt i32 %36, %39
  br i1 %40, label %41, label %47

41:                                               ; preds = %35
  %42 = load i32, ptr %6, align 4, !tbaa !11
  %43 = load ptr, ptr %2, align 8, !tbaa !282
  %44 = getelementptr inbounds nuw %struct.t_symtab, ptr %43, i32 0, i32 0
  %45 = load i32, ptr %44, align 8, !tbaa !326
  %46 = icmp slt i32 %42, %45
  br label %47

47:                                               ; preds = %41, %35
  %48 = phi i1 [ false, %35 ], [ %46, %41 ]
  br i1 %48, label %50, label %49

49:                                               ; preds = %47
  call void @llvm.lifetime.end.p0(i64 4, ptr %6) #18
  br label %78

50:                                               ; preds = %47
  %51 = load ptr, ptr %4, align 8, !tbaa !287
  %52 = getelementptr inbounds nuw %struct.t_symbuf, ptr %51, i32 0, i32 1
  %53 = load ptr, ptr %52, align 8, !tbaa !288
  %54 = load i32, ptr %6, align 4, !tbaa !11
  %55 = sext i32 %54 to i64
  %56 = getelementptr inbounds ptr, ptr %53, i64 %55
  %57 = load ptr, ptr %56, align 8, !tbaa !104
  %58 = icmp ne ptr %57, null
  br i1 %58, label %59, label %74

59:                                               ; preds = %50
  %60 = load ptr, ptr %4, align 8, !tbaa !287
  %61 = getelementptr inbounds nuw %struct.t_symbuf, ptr %60, i32 0, i32 1
  %62 = load ptr, ptr %61, align 8, !tbaa !288
  %63 = load i32, ptr %6, align 4, !tbaa !11
  %64 = sext i32 %63 to i64
  %65 = getelementptr inbounds ptr, ptr %62, i64 %64
  %66 = load ptr, ptr %65, align 8, !tbaa !104
  %67 = call noundef ptr @_Z10gmx_strdupPKc(ptr noundef %66)
  %68 = load ptr, ptr %5, align 8, !tbaa !287
  %69 = getelementptr inbounds nuw %struct.t_symbuf, ptr %68, i32 0, i32 1
  %70 = load ptr, ptr %69, align 8, !tbaa !288
  %71 = load i32, ptr %6, align 4, !tbaa !11
  %72 = sext i32 %71 to i64
  %73 = getelementptr inbounds ptr, ptr %70, i64 %72
  store ptr %67, ptr %73, align 8, !tbaa !104
  br label %74

74:                                               ; preds = %59, %50
  br label %75

75:                                               ; preds = %74
  %76 = load i32, ptr %6, align 4, !tbaa !11
  %77 = add nsw i32 %76, 1
  store i32 %77, ptr %6, align 4, !tbaa !11
  br label %35, !llvm.loop !337

78:                                               ; preds = %49
  %79 = load ptr, ptr %4, align 8, !tbaa !287
  %80 = getelementptr inbounds nuw %struct.t_symbuf, ptr %79, i32 0, i32 2
  %81 = load ptr, ptr %80, align 8, !tbaa !291
  store ptr %81, ptr %4, align 8, !tbaa !287
  %82 = load ptr, ptr %4, align 8, !tbaa !287
  %83 = icmp ne ptr %82, null
  br i1 %83, label %84, label %90

84:                                               ; preds = %78
  %85 = load ptr, ptr %5, align 8, !tbaa !287
  %86 = getelementptr inbounds nuw %struct.t_symbuf, ptr %85, i32 0, i32 2
  call void @_ZL13gmx_snew_implI8t_symbufEvPKcS2_iRPT_m(ptr noundef @.str.21, ptr noundef @.str.1, i32 noundef 361, ptr noundef nonnull align 8 dereferenceable(8) %86, i64 noundef 1)
  %87 = load ptr, ptr %5, align 8, !tbaa !287
  %88 = getelementptr inbounds nuw %struct.t_symbuf, ptr %87, i32 0, i32 2
  %89 = load ptr, ptr %88, align 8, !tbaa !291
  store ptr %89, ptr %5, align 8, !tbaa !287
  br label %90

90:                                               ; preds = %84, %78
  br label %20, !llvm.loop !338

91:                                               ; preds = %20
  %92 = load ptr, ptr %2, align 8, !tbaa !282
  %93 = getelementptr inbounds nuw %struct.t_symtab, ptr %92, i32 0, i32 0
  %94 = load i32, ptr %93, align 8, !tbaa !326
  %95 = load ptr, ptr %3, align 8, !tbaa !282
  %96 = getelementptr inbounds nuw %struct.t_symtab, ptr %95, i32 0, i32 0
  store i32 %94, ptr %96, align 8, !tbaa !326
  %97 = load ptr, ptr %3, align 8, !tbaa !282
  call void @llvm.lifetime.end.p0(i64 8, ptr %5) #18
  call void @llvm.lifetime.end.p0(i64 8, ptr %4) #18
  call void @llvm.lifetime.end.p0(i64 8, ptr %3) #18
  ret ptr %97
}