; Function Attrs: mustprogress uwtable
define noundef ptr @_Z15duplicateSymtabPK8t_symtab(ptr noundef readonly captures(none) %0) local_unnamed_addr #0 {
  %2 = tail call noundef ptr @_Z11save_callocPKcS0_imm(ptr noundef nonnull @.str.18, ptr noundef nonnull @.str.1, i32 noundef 339, i64 noundef 1, i64 noundef 16)
  store i32 0, ptr %2, align 8, !tbaa !108
  %3 = getelementptr inbounds nuw i8, ptr %2, i64 8
  store ptr null, ptr %3, align 8, !tbaa !98
  %4 = getelementptr inbounds nuw i8, ptr %0, i64 8
  %5 = load ptr, ptr %4, align 8, !tbaa !98
  %.not = icmp eq ptr %5, null
  br i1 %.not, label %._crit_edge, label %.lr.ph36.preheader

.lr.ph36.preheader:                               ; preds = %1
  %6 = tail call noundef ptr @_Z11save_callocPKcS0_imm(ptr noundef nonnull @.str.19, ptr noundef nonnull @.str.1, i32 noundef 344, i64 noundef 1, i64 noundef 24)
  store ptr %6, ptr %3, align 8, !tbaa !110
  br label %.lr.ph36

.lr.ph36:                                         ; preds = %33, %.lr.ph36.preheader
  %.02235 = phi ptr [ %35, %33 ], [ %6, %.lr.ph36.preheader ]
  %.02334 = phi ptr [ %20, %33 ], [ %5, %.lr.ph36.preheader ]
  %7 = getelementptr inbounds nuw i8, ptr %.02235, i64 8
  %8 = load i32, ptr %.02334, align 8, !tbaa !101
  %9 = sext i32 %8 to i64
  %10 = tail call noundef ptr @_Z11save_callocPKcS0_imm(ptr noundef nonnull @.str.20, ptr noundef nonnull @.str.1, i32 noundef 349, i64 noundef range(i64 -2147483648, 2147483648) %9, i64 noundef 8)
  store ptr %10, ptr %7, align 8, !tbaa !104
  %11 = load i32, ptr %.02334, align 8, !tbaa !101
  store i32 %11, ptr %.02235, align 8, !tbaa !101
  %12 = icmp sgt i32 %11, 0
  br i1 %12, label %.lr.ph, label %.critedge

.lr.ph:                                           ; preds = %.lr.ph36
  %13 = getelementptr inbounds nuw i8, ptr %.02334, i64 8
  br label %14

14:                                               ; preds = %.lr.ph, %29
  %15 = phi i32 [ %11, %.lr.ph ], [ %30, %29 ]
  %indvars.iv = phi i64 [ 0, %.lr.ph ], [ %indvars.iv.next, %29 ]
  %16 = load i32, ptr %0, align 8, !tbaa !108
  %17 = sext i32 %16 to i64
  %18 = icmp slt i64 %indvars.iv, %17
  br i1 %18, label %21, label %.critedge

.critedge:                                        ; preds = %14, %29, %.lr.ph36
  %19 = getelementptr inbounds nuw i8, ptr %.02334, i64 16
  %20 = load ptr, ptr %19, align 8, !tbaa !105
  %.not26 = icmp eq ptr %20, null
  br i1 %.not26, label %._crit_edge, label %33

21:                                               ; preds = %14
  %22 = load ptr, ptr %13, align 8, !tbaa !106
  %23 = getelementptr inbounds nuw ptr, ptr %22, i64 %indvars.iv
  %24 = load ptr, ptr %23, align 8, !tbaa !51
  %.not27 = icmp eq ptr %24, null
  br i1 %.not27, label %29, label %25

25:                                               ; preds = %21
  %26 = tail call noundef ptr @_Z10gmx_strdupPKc(ptr noundef nonnull %24)
  %27 = load ptr, ptr %7, align 8, !tbaa !106
  %28 = getelementptr inbounds nuw ptr, ptr %27, i64 %indvars.iv
  store ptr %26, ptr %28, align 8, !tbaa !51
  %.pre = load i32, ptr %.02334, align 8, !tbaa !101
  br label %29

29:                                               ; preds = %21, %25
  %30 = phi i32 [ %15, %21 ], [ %.pre, %25 ]
  %indvars.iv.next = add nuw nsw i64 %indvars.iv, 1
  %31 = sext i32 %30 to i64
  %32 = icmp slt i64 %indvars.iv.next, %31
  br i1 %32, label %14, label %.critedge, !llvm.loop !115

33:                                               ; preds = %.critedge
  %34 = getelementptr inbounds nuw i8, ptr %.02235, i64 16
  %35 = tail call noundef ptr @_Z11save_callocPKcS0_imm(ptr noundef nonnull @.str.21, ptr noundef nonnull @.str.1, i32 noundef 361, i64 noundef 1, i64 noundef 24)
  store ptr %35, ptr %34, align 8, !tbaa !110
  br label %.lr.ph36, !llvm.loop !116

._crit_edge:                                      ; preds = %.critedge, %1
  %36 = load i32, ptr %0, align 8, !tbaa !108
  store i32 %36, ptr %2, align 8, !tbaa !108
  ret ptr %2
}